; Function Attrs: mustprogress uwtable
define void @_ZN14duckdb_parquet10PageHeader25__set_data_page_header_v2ERKNS_16DataPageHeaderV2E(ptr noundef nonnull align 8 dereferenceable(457) initializes((256, 281)) %0, ptr noundef nonnull align 8 dereferenceable(201) %1) local_unnamed_addr #2 align 2 {
  %3 = getelementptr inbounds nuw i8, ptr %1, i64 8
  %4 = load i32, ptr %3, align 8, !tbaa !383
  %5 = getelementptr inbounds nuw i8, ptr %0, i64 256
  store i32 %4, ptr %5, align 8, !tbaa !383
  %6 = getelementptr inbounds nuw i8, ptr %1, i64 12
  %7 = load i32, ptr %6, align 4, !tbaa !384
  %8 = getelementptr inbounds nuw i8, ptr %0, i64 260
  store i32 %7, ptr %8, align 4, !tbaa !384
  %9 = getelementptr inbounds nuw i8, ptr %1, i64 16
  %10 = load i32, ptr %9, align 8, !tbaa !385
  %11 = getelementptr inbounds nuw i8, ptr %0, i64 264
  store i32 %10, ptr %11, align 8, !tbaa !385
  %12 = getelementptr inbounds nuw i8, ptr %1, i64 20
  %13 = load i32, ptr %12, align 4, !tbaa !386
  %14 = getelementptr inbounds nuw i8, ptr %0, i64 268
  store i32 %13, ptr %14, align 4, !tbaa !386
  %15 = getelementptr inbounds nuw i8, ptr %1, i64 24
  %16 = load i32, ptr %15, align 8, !tbaa !387
  %17 = getelementptr inbounds nuw i8, ptr %0, i64 272
  store i32 %16, ptr %17, align 8, !tbaa !387
  %18 = getelementptr inbounds nuw i8, ptr %1, i64 28
  %19 = load i32, ptr %18, align 4, !tbaa !388
  %20 = getelementptr inbounds nuw i8, ptr %0, i64 276
  store i32 %19, ptr %20, align 4, !tbaa !388
  %21 = getelementptr inbounds nuw i8, ptr %1, i64 32
  %22 = load i8, ptr %21, align 8, !tbaa !380, !range !137, !noundef !138
  %23 = getelementptr inbounds nuw i8, ptr %0, i64 280
  store i8 %22, ptr %23, align 8, !tbaa !380
  %24 = getelementptr inbounds nuw i8, ptr %1, i64 48
  %25 = getelementptr inbounds nuw i8, ptr %0, i64 296
  tail call void @_ZNSt7__cxx1112basic_stringIcSt11char_traitsIcESaIcEE9_M_assignERKS4_(ptr noundef nonnull align 8 dereferenceable(32) %25, ptr noundef nonnull align 8 dereferenceable(32) %24)
  %26 = getelementptr inbounds nuw i8, ptr %1, i64 80
  %27 = getelementptr inbounds nuw i8, ptr %0, i64 328
  tail call void @_ZNSt7__cxx1112basic_stringIcSt11char_traitsIcESaIcEE9_M_assignERKS4_(ptr noundef nonnull align 8 dereferenceable(32) %27, ptr noundef nonnull align 8 dereferenceable(32) %26)
  %28 = getelementptr inbounds nuw i8, ptr %1, i64 112
  %29 = load i64, ptr %28, align 8, !tbaa !134
  %30 = getelementptr inbounds nuw i8, ptr %0, i64 360
  store i64 %29, ptr %30, align 8, !tbaa !134
  %31 = getelementptr inbounds nuw i8, ptr %1, i64 120
  %32 = load i64, ptr %31, align 8, !tbaa !135
  %33 = getelementptr inbounds nuw i8, ptr %0, i64 368
  store i64 %32, ptr %33, align 8, !tbaa !135
  %34 = getelementptr inbounds nuw i8, ptr %1, i64 128
  %35 = getelementptr inbounds nuw i8, ptr %0, i64 376
  tail call void @_ZNSt7__cxx1112basic_stringIcSt11char_traitsIcESaIcEE9_M_assignERKS4_(ptr noundef nonnull align 8 dereferenceable(32) %35, ptr noundef nonnull align 8 dereferenceable(32) %34)
  %36 = getelementptr inbounds nuw i8, ptr %1, i64 160
  %37 = getelementptr inbounds nuw i8, ptr %0, i64 408
  tail call void @_ZNSt7__cxx1112basic_stringIcSt11char_traitsIcESaIcEE9_M_assignERKS4_(ptr noundef nonnull align 8 dereferenceable(32) %37, ptr noundef nonnull align 8 dereferenceable(32) %36)
  %38 = getelementptr inbounds nuw i8, ptr %1, i64 192
  %39 = load i8, ptr %38, align 8, !tbaa !130, !range !137, !noundef !138
  %40 = getelementptr inbounds nuw i8, ptr %0, i64 440
  store i8 %39, ptr %40, align 8, !tbaa !130
  %41 = getelementptr inbounds nuw i8, ptr %1, i64 193
  %42 = load i8, ptr %41, align 1, !tbaa !133, !range !137, !noundef !138
  %43 = getelementptr inbounds nuw i8, ptr %0, i64 441
  store i8 %42, ptr %43, align 1, !tbaa !133
  %44 = getelementptr inbounds nuw i8, ptr %1, i64 194
  %45 = getelementptr inbounds nuw i8, ptr %0, i64 442
  %46 = load i8, ptr %44, align 2, !tbaa !38
  store i8 %46, ptr %45, align 2, !tbaa !38
  %47 = getelementptr inbounds nuw i8, ptr %1, i64 200
  %48 = getelementptr inbounds nuw i8, ptr %0, i64 448
  %49 = load i8, ptr %47, align 8, !tbaa !38
  store i8 %49, ptr %48, align 8, !tbaa !38
  %50 = getelementptr inbounds nuw i8, ptr %0, i64 456
  %51 = load i8, ptr %50, align 8
  %52 = or i8 %51, 16
  store i8 %52, ptr %50, align 8
  ret void
}